(lp0
(lp1
F0.11796156083060119
aF0.11796156083060119
aF0.11796156083060119
aa(lp2
F0.08694060257028016
aF0.11942499316442153
aF0.11428658228601386
aa(lp3
F0.026221555724126898
aF0.10993037677128548
aF0.1103022253395857
aa(lp4
F0.04897736935695468
aF0.0976284559377792
aF0.1063802254330975
aa(lp5
F0.07897436604939971
aF0.08605338007006676
aF0.10250255668528015
aa(lp6
F0.05734837741331349
aF0.07710049968695834
aF0.0986604680250163
aa(lp7
F0.03243542626206399
aF0.07236964093276003
aF0.09485844572586702
aa(lp8
F0.07266829813136426
aF0.07162866507724795
aF0.09111508137328261
aa(lp9
F0.09664396168569764
aF0.07330904888046712
aF0.08746074658245348
aa(lp10
F0.0940289911773738
aF0.07543441531879294
aF0.08393392576435987
aa(lp11
F0.07921841822695709
aF0.07624591829344377
aF0.08057826368324159
aa(lp12
F0.06602175938027477
aF0.07512121540755143
aF0.07744089544932986
aa(lp13
F0.05980469467138896
aF0.07304070174496952
aF0.07457083468628248
aa(lp14
F0.059633158848963884
aF0.0713962922685427
aF0.07201580802394233
aa(lp15
F0.06329533390689418
aF0.07065152666838098
aF0.06981736454137968
aa(lp16
F0.06935966843471278
aF0.07068226296550582
aF0.06800570932151831
aa(lp17
F0.07642427633633282
aF0.07139725843834803
aF0.06659562520617178
aa(lp18
F0.08215071618131713
aF0.07243445735731109
aF0.06558351169669159
aa(lp19
F0.08465810176170434
aF0.07311453452881511
aF0.06494520801704985
aa(lp20
F0.0842027140478221
aF0.07309370357031184
aF0.06463559396456187
aa(lp21
F0.08177875675504348
aF0.07274752218457431
aF0.06459197819464725
aa(lp22
F0.07717334036141778
aF0.07276573400174276
aF0.06474194324493708
aa(lp23
F0.07001962798722286
aF0.07346599082890884
aF0.06501335639280852
aa(lp24
F0.061631343091293
aF0.07474486425527684
aF0.06534259663167444
aa(lp25
F0.054604318278803465
aF0.07657771209948963
aF0.06567856033397167
aa(lp26
F0.0506940957943072
aF0.0789397986504315
aF0.06598327402549456
aa(lp27
F0.0494851238403694
aF0.08136951675646348
aF0.06623174583365869
aa(lp28
F0.049409408466225935
aF0.08335717140019257
aF0.06641270734442672
aa(lp29
F0.04955514366625497
aF0.08492846248699919
aF0.0665298965669054
aa(lp30
F0.05041688175061697
aF0.08622726281996441
aF0.0666026235597952
aa(lp31
F0.05259050778350005
aF0.08707271610924153
aF0.0666646120183207
aa(lp32
F0.05487996252794131
aF0.08742239092092087
aF0.06676053500199139
aa(lp33
F0.05545307017927043
aF0.0875593105431695
aF0.06693998985791116
aa(lp34
F0.0548950224145133
aF0.08757844556158019
aF0.0672490362966537
aa(lp35
F0.05549030151385858
aF0.08737585187502506
aF0.06771968330349558
aa(lp36
F0.057432780387792745
aF0.08699670458026003
aF0.06835815000643797
aa(lp37
F0.05842255910070113
aF0.08645819532704357
aF0.06913441613986468
aa(lp38
F0.057373788896182595
aF0.0857172543744172
aF0.0699782234026203
aa(lp39
F0.05601185710409773
aF0.08509745472820342
aF0.07078709127683872
aa(lp40
F0.05619205666389476
aF0.08509168719466634
aF0.07144710520173417
aa(lp41
F0.05739945652357275
aF0.08577974030579355
aF0.0718592121230746
aa(lp42
F0.05789748287747863
aF0.08719885787500266
aF0.07195888914490783
aa(lp43
F0.05736180269562771
aF0.08988384467151152
aF0.07172035605816818
aa(lp44
F0.05702644767171928
aF0.09407422821147213
aF0.07114672058365401
aa(lp45
F0.057325708681475
aF0.0988192434988921
aF0.07025667176145066
aa(lp46
F0.05689187926052584
aF0.10282804495629169
aF0.06907790771991046
aa(lp47
F0.054456837427060575
aF0.10556686002237865
aF0.06764764626664814
aa(lp48
F0.050475100032450586
aF0.1067217644355634
aF0.06601211022728765
aa(lp49
F0.045957607254172986
aF0.10567902656353768
aF0.06421881851303408
aa(lp50
F0.04084663862881657
aF0.10239177897166804
aF0.06230518535917458
aa(lp51
F0.03467573850067474
aF0.09738122420451152
aF0.060294495941007685
aa(lp52
F0.028220359261405956
aF0.09046230897475573
aF0.05820645730800324
aa(lp53
F0.023454768197697835
aF0.08175449378125077
aF0.056073877121823226
aa(lp54
F0.021382708487629295
aF0.0737542404926543
aF0.05394652200252217
aa(lp55
F0.021503532963630292
aF0.06989791508364653
aF0.05187476589771971
aa(lp56
F0.02461453302792511
aF0.07241082099233336
aF0.04988711803709233
aa(lp57
F0.03073592619092826
aF0.08093771385826147
aF0.04798121933051541
aa(lp58
F0.03705015848301242
aF0.09164527141841017
aF0.04613646456521956
aa(lp59
F0.04316714781690019
aF0.09857503964182797
aF0.04434412586631428
aa(lp60
F0.05334950794625764
aF0.0964284300978388
aF0.04264262734538071
aa(lp61
F0.06805821429398913
aF0.08981779078139217
aF0.0411422568042454
aa(lp62
F0.08074721207553846
aF0.08460282416848915
aF0.04002763703715797
aa(lp63
F0.08589960981884794
aF0.07410992809780306
aF0.03953115021885635
aa(lp64
F0.08378982666710816
aF0.059656657790818
aF0.03987433395390717
aa(lp65
F0.07868273295168994
aF0.04988454978318323
aF0.04119090300179988
aa(lp66
F0.07394531903403072
aF0.046911906258953064
aF0.04347053436528256
aa(lp67
F0.07066353932878582
aF0.04867780096163948
aF0.04655919703699316
aa(lp68
F0.0677575638111933
aF0.05061311970165241
aF0.05021055326334337
aa(lp69
F0.061006630092304795
aF0.04896273912490067
aF0.05415198015330766
aa(lp70
F0.04667899272175779
aF0.044057426360381964
aF0.05813529117523851
aa(lp71
F0.029119196946260372
aF0.03754482826205768
aF0.06196287016913286
aa(lp72
F0.02541093592070035
aF0.03247163541382504
aF0.06549300803479358
aa(lp73
F0.03601387111555087
aF0.03722078432920573
aF0.06863281237089822
aa(lp74
F0.04533817003637003
aF0.052451911462168085
aF0.07132707703352671
aa(lp75
F0.05091122666040582
aF0.06808519577132711
aF0.07354887083837033
aa(lp76
F0.05387505724842991
aF0.07560830848031466
aF0.07529393269284444
aa(lp77
F0.05502440739858355
aF0.07292311494802256
aF0.07657793329662958
aa(lp78
F0.054409749008282986
aF0.06314244317148505
aF0.0774342297788321
aa(lp79
F0.0520845062483306
aF0.048594724670320666
aF0.07791006074828982
aa(lp80
F0.04859649451101882
aF0.030838213993235816
aF0.07806069933693519
aa(lp81
F0.04422808705276514
aF0.01644852028407101
aF0.07794265855211197
aa(lp82
F0.03781996672565108
aF0.014390875111536515
aF0.0776074588200717
aa(lp83
F0.02884519406332465
aF0.018396463023936896
aF0.07709687650680025
aa(lp84
F0.01921964032937893
aF0.022648171105138944
aF0.07644014038138176
aa(lp85
F0.011712375498717863
aF0.024839524776783112
aF0.07565365910930351
aa(lp86
F0.013236195347115329
aF0.022962473618804824
aF0.0747437852227725
aa(lp87
F0.025302713745541733
aF0.019508941329195027
aF0.07371231629630588
aa(lp88
F0.039577287473122794
aF0.01721208317129886
aF0.07256348920764778
aa(lp89
F0.050826009873855445
aF0.014925747834467477
aF0.07131092235007397
aa(lp90
F0.058463795133501015
aF0.012686677096888187
aF0.06998332176987312
aa(lp91
F0.06620401895225383
aF0.013046150497230565
aF0.06862833399336773
aa(lp92
F0.07626284793429043
aF0.01427411579628333
aF0.06731422326898387
aa(lp93
F0.08557574170079442
aF0.01466977973402535
aF0.06612870631225327
aa(lp94
F0.09081191624010777
aF0.01638160592381052
aF0.06517369502780114
aa(lp95
F0.09399834225471076
aF0.019787750544755987
aF0.06455532613912134
aa(lp96
F0.09919086651567358
aF0.02298557702966086
aF0.0643713598749547
aa(lp97
F0.10589622146918624
aF0.025524127808660903
aF0.06470134245872976
aa(lp98
F0.11055697869412952
aF0.028695894155055586
aF0.06560588280760431
aa(lp99
F0.11279439677161356
aF0.03381776230520435
aF0.06713804600111714
aa(lp100
F0.11522949614238208
aF0.04056267460527595
aF0.06936306116397664
aa(lp101
F0.1183994913703386
aF0.047354543111302924
aF0.07237571604047727
aa(lp102
F0.12031486127885704
aF0.053656742292171544
aF0.07630201220395638
aa(lp103
F0.12076171369026675
aF0.060800553379970854
aF0.08127591929314705
aa(lp104
F0.12149128335602297
aF0.06921233147346291
aF0.08739407615830004
aa(lp105
F0.12252136486912378
aF0.07697375805113593
aF0.09466544944217746
aa(lp106
F0.12208376098763814
aF0.08248054904905641
aF0.1029774117793461
aa(lp107
F0.1202386974027476
aF0.08737274881415004
aF0.11208919179256255
aa(lp108
F0.11874114849346933
aF0.09393458933912517
aF0.12164923555099229
aa(lp109
F0.11761295560318637
aF0.10093880765546806
aF0.13122837989340055
aa(lp110
F0.11520322953043313
aF0.10586423375228311
aF0.14036450435276773
aa(lp111
F0.11172974713086288
aF0.11043076240169197
aF0.1486155070317386
aa(lp112
F0.10920222955862927
aF0.11773807138508693
aF0.15561215846403326
aa(lp113
F0.1078248417658553
aF0.12492393127816608
aF0.16109754064992624
aa(lp114
F0.10578196868471523
aF0.12555314092502826
aF0.16494283219028688
aa(lp115
F0.10311119389813068
aF0.11870557352629628
aF0.16713923348860307
aa(lp116
F0.10204799400916546
aF0.10803493609754833
aF0.16777512918927157
aa(lp117
F0.10286977546180229
aF0.09269352319040934
aF0.16700965510762814
aa(lp118
F0.10331550576356946
aF0.07095149745839455
aF0.165048853588212
aa(lp119
F0.10304631433500205
aF0.052558711150353786
aF0.1621242607030269
aa(lp120
F0.10331730388287858
aF0.05116615673178704
aF0.15847172359075498
aa(lp121
F0.10099831440830763
aF0.07227219265932942
aF0.15431120082772737
aa(lp122
F0.09026568910691592
aF0.08185347952404065
aF0.14983183817714638
aa(lp123
F0.07313507438947667
aF0.04105359911446756
aF0.1451859544875921
aa(lp124
F0.061388067808088226
aF0.03936069926116329
aF0.14049076199241328
aa(lp125
F0.06397498444769578
aF0.0905979451121149
aF0.13583262915811478
aa(lp126
F0.0790671776503535
aF0.07296087110309403
aF0.13126972085812122
aa(lp127
F0.09332212157037373
aF0.014861260854559424
aF0.12683342943704953
aa(lp128
F0.11181604034983245
aF0.0657971296607389
aF0.12290353888973674
aa.